target datalayout = "e-m:e-p270:32:32-p271:32:32-p272:64:64-i64:64-i128:128-f80:128-n8:16:32:64-S128"
target triple = "x86_64-pc-linux-gnu"

@.str.21 = private unnamed_addr constant [3 x i8] c"kB\00", align 1

; Function Attrs: nounwind uwtable
define internal float @convert_value(ptr noundef %0) #0 {
  %2 = alloca ptr, align 8
  %3 = alloca ptr, align 8
  %4 = alloca float, align 4
  store ptr %0, ptr %2, align 8, !tbaa !48
  call void @llvm.lifetime.start.p0(i64 8, ptr %3) #12
  call void @llvm.lifetime.start.p0(i64 4, ptr %4) #12
  %5 = load ptr, ptr %2, align 8, !tbaa !48
  %6 = call i64 @strtoul(ptr noundef %5, ptr noundef %3, i32 noundef 10) #12
  %7 = uitofp i64 %6 to float
  store float %7, ptr %4, align 4, !tbaa !131
  %8 = load ptr, ptr %3, align 8, !tbaa !48
  %9 = icmp ne ptr null, %8
  br i1 %9, label %10, label %19

10:                                               ; preds = %1
  %11 = load ptr, ptr %3, align 8, !tbaa !48
  %12 = call ptr @strstr(ptr noundef %11, ptr noundef @.str.21) #13
  %13 = icmp ne ptr null, %12
  br i1 %13, label %14, label %19

14:                                               ; preds = %10
  %15 = load float, ptr %4, align 4, !tbaa !131
  %16 = fpext float %15 to double
  %17 = fdiv double %16, 1.024000e+03
  %18 = fptrunc double %17 to float
  store float %18, ptr %4, align 4, !tbaa !131
  br label %19

19:                                               ; preds = %14, %10, %1
  %20 = load float, ptr %4, align 4, !tbaa !131
  call void @llvm.lifetime.end.p0(i64 4, ptr %4) #12
  call void @llvm.lifetime.end.p0(i64 8, ptr %3) #12
  ret float %20
}