; Function Attrs: mustprogress nofree nounwind willreturn uwtable
define internal fastcc float @convert_value(ptr noundef nonnull %0) unnamed_addr #10 {
  %2 = alloca ptr, align 8
  call void @llvm.lifetime.start.p0(i64 8, ptr nonnull %2) #17
  %3 = call i64 @strtoul(ptr noundef nonnull %0, ptr noundef nonnull %2, i32 noundef 10) #17
  %4 = uitofp i64 %3 to float
  %5 = load ptr, ptr %2, align 8, !tbaa !43
  %.not = icmp eq ptr %5, null
  br i1 %.not, label %10, label %6

6:                                                ; preds = %1
  %7 = tail call ptr @strstr(ptr noundef nonnull dereferenceable(1) %5, ptr noundef nonnull dereferenceable(1) @.str.21) #18
  %.not4 = icmp eq ptr %7, null
  br i1 %.not4, label %10, label %8

8:                                                ; preds = %6
  %9 = fmul float %4, 0x3F50000000000000
  br label %10

10:                                               ; preds = %8, %6, %1
  %.0 = phi float [ %9, %8 ], [ %4, %6 ], [ %4, %1 ]
  call void @llvm.lifetime.end.p0(i64 8, ptr nonnull %2) #17
  ret float %.0
}